; Function Attrs: nounwind uwtable
define internal fastcc noalias nonnull ptr @_init_l_Lean_PPContext_runMetaM___rarg___closed__1() unnamed_addr #0 {
  tail call void @lean_inc_heartbeat() #6
  %1 = tail call noalias ptr @mi_malloc_small(i64 noundef 32) #6
  %2 = icmp eq ptr %1, null
  br i1 %2, label %3, label %lean_alloc_ctor.exit

3:                                                ; preds = %0
  tail call void @lean_internal_panic_out_of_memory() #7
  unreachable

lean_alloc_ctor.exit:                             ; preds = %0
  %4 = getelementptr inbounds nuw i8, ptr %1, i64 4
  %5 = getelementptr inbounds nuw i8, ptr %1, i64 24
  store i64 257, ptr %5, align 8, !tbaa !13
  store i32 1, ptr %1, align 4, !tbaa !4
  store i32 32, ptr %4, align 4
  %6 = getelementptr inbounds nuw i8, ptr %1, i64 8
  %7 = getelementptr inbounds nuw i8, ptr %1, i64 13
  tail call void @llvm.memset.p0.i64(ptr noundef nonnull align 1 dereferenceable(5) %6, i8 0, i64 5, i1 false)
  store i8 1, ptr %7, align 1, !tbaa !12
  %8 = getelementptr inbounds nuw i8, ptr %1, i64 14
  store i8 1, ptr %8, align 1, !tbaa !12
  %9 = getelementptr inbounds nuw i8, ptr %1, i64 15
  store i8 0, ptr %9, align 1, !tbaa !12
  %10 = getelementptr inbounds nuw i8, ptr %1, i64 16
  store i8 1, ptr %10, align 1, !tbaa !12
  %11 = getelementptr inbounds nuw i8, ptr %1, i64 17
  store i8 1, ptr %11, align 1, !tbaa !12
  %12 = getelementptr inbounds nuw i8, ptr %1, i64 18
  store i8 0, ptr %12, align 1, !tbaa !12
  %13 = getelementptr inbounds nuw i8, ptr %1, i64 19
  store i8 1, ptr %13, align 1, !tbaa !12
  %14 = getelementptr inbounds nuw i8, ptr %1, i64 20
  store i8 1, ptr %14, align 1, !tbaa !12
  %15 = getelementptr inbounds nuw i8, ptr %1, i64 21
  store i8 1, ptr %15, align 1, !tbaa !12
  %16 = getelementptr inbounds nuw i8, ptr %1, i64 22
  store i8 2, ptr %16, align 1, !tbaa !12
  %17 = getelementptr inbounds nuw i8, ptr %1, i64 23
  store i8 1, ptr %17, align 1, !tbaa !12
  ret ptr %1
}